; Function Attrs: mustprogress uwtable
define hidden void @_ZN5zxing12BinaryBitmap14getBlackMatrixERNS_12ErrorHandlerE(ptr dead_on_unwind noalias writable writeonly sret(%"class.zxing::Ref.3") align 8 captures(none) %0, ptr noundef nonnull readonly align 8 captures(none) dereferenceable(32) %1, ptr noundef nonnull align 8 dereferenceable(48) %2) local_unnamed_addr #3 align 2 personality ptr @__gxx_personality_v0 {
  %4 = alloca %"class.zxing::Ref.3", align 8
  call void @llvm.lifetime.start.p0(i64 8, ptr nonnull %4) #9
  %5 = getelementptr inbounds nuw i8, ptr %1, i64 16
  %6 = load ptr, ptr %5, align 8, !tbaa !10
  %7 = load ptr, ptr %6, align 8, !tbaa !8
  %8 = getelementptr inbounds nuw i8, ptr %7, i64 16
  %9 = load ptr, ptr %8, align 8
  call void %9(ptr dead_on_unwind nonnull writable sret(%"class.zxing::Ref.3") align 8 %4, ptr noundef nonnull align 8 dereferenceable(72) %6, ptr noundef nonnull align 8 dereferenceable(48) %2)
  %10 = load ptr, ptr %2, align 8, !tbaa !8
  %11 = getelementptr inbounds nuw i8, ptr %10, i64 16
  %12 = load ptr, ptr %11, align 8
  %13 = invoke noundef i32 %12(ptr noundef nonnull align 8 dereferenceable(48) %2)
          to label %14 unwind label %15

14:                                               ; preds = %3
  %.not = icmp eq i32 %13, 0
  %.pre = load ptr, ptr %4, align 8, !tbaa !20
  br i1 %.not, label %27, label %_ZN5zxing3RefINS_9BitMatrixEEC2ERKS2_.exit

15:                                               ; preds = %3
  %16 = landingpad { ptr, i32 }
          cleanup
  %17 = load ptr, ptr %4, align 8, !tbaa !20
  %.not.i = icmp eq ptr %17, null
  br i1 %.not.i, label %_ZN5zxing3RefINS_9BitMatrixEED2Ev.exit, label %18

18:                                               ; preds = %15
  %19 = getelementptr inbounds nuw i8, ptr %17, i64 8
  %20 = load i32, ptr %19, align 8, !tbaa !3
  %21 = add i32 %20, -1
  store i32 %21, ptr %19, align 8, !tbaa !3
  %22 = icmp eq i32 %21, 0
  br i1 %22, label %23, label %_ZN5zxing3RefINS_9BitMatrixEED2Ev.exit

23:                                               ; preds = %18
  store i32 -559026175, ptr %19, align 8, !tbaa !3
  %24 = load ptr, ptr %17, align 8, !tbaa !8
  %25 = getelementptr inbounds nuw i8, ptr %24, i64 8
  %26 = load ptr, ptr %25, align 8
  call void %26(ptr noundef nonnull align 8 dereferenceable(12) %17) #9
  br label %_ZN5zxing3RefINS_9BitMatrixEED2Ev.exit

_ZN5zxing3RefINS_9BitMatrixEED2Ev.exit:           ; preds = %15, %18, %23
  call void @llvm.lifetime.end.p0(i64 8, ptr nonnull %4) #9
  resume { ptr, i32 } %16

27:                                               ; preds = %14
  %.not.i.i = icmp eq ptr %.pre, null
  br i1 %.not.i.i, label %_ZN5zxing3RefINS_9BitMatrixEEC2ERKS2_.exit.thread, label %_ZN5zxing3RefINS_9BitMatrixEEC2ERKS2_.exit.thread8

_ZN5zxing3RefINS_9BitMatrixEEC2ERKS2_.exit.thread: ; preds = %27
  store ptr null, ptr %0, align 8, !tbaa !20
  br label %_ZN5zxing3RefINS_9BitMatrixEED2Ev.exit5

_ZN5zxing3RefINS_9BitMatrixEEC2ERKS2_.exit.thread8: ; preds = %27
  %28 = getelementptr inbounds nuw i8, ptr %.pre, i64 8
  %29 = load i32, ptr %28, align 8, !tbaa !3
  %30 = add i32 %29, 1
  store i32 %30, ptr %28, align 8, !tbaa !3
  store ptr %.pre, ptr %0, align 8, !tbaa !20
  br label %31

_ZN5zxing3RefINS_9BitMatrixEEC2ERKS2_.exit:       ; preds = %14
  store ptr null, ptr %0, align 8, !tbaa !20
  %.not.i4 = icmp eq ptr %.pre, null
  br i1 %.not.i4, label %_ZN5zxing3RefINS_9BitMatrixEED2Ev.exit5, label %31

31:                                               ; preds = %_ZN5zxing3RefINS_9BitMatrixEEC2ERKS2_.exit.thread8, %_ZN5zxing3RefINS_9BitMatrixEEC2ERKS2_.exit
  %32 = getelementptr inbounds nuw i8, ptr %.pre, i64 8
  %33 = load i32, ptr %32, align 8, !tbaa !3
  %34 = add i32 %33, -1
  store i32 %34, ptr %32, align 8, !tbaa !3
  %35 = icmp eq i32 %34, 0
  br i1 %35, label %36, label %_ZN5zxing3RefINS_9BitMatrixEED2Ev.exit5

36:                                               ; preds = %31
  store i32 -559026175, ptr %32, align 8, !tbaa !3
  %37 = load ptr, ptr %.pre, align 8, !tbaa !8
  %38 = getelementptr inbounds nuw i8, ptr %37, i64 8
  %39 = load ptr, ptr %38, align 8
  call void %39(ptr noundef nonnull align 8 dereferenceable(12) %.pre) #9
  br label %_ZN5zxing3RefINS_9BitMatrixEED2Ev.exit5

_ZN5zxing3RefINS_9BitMatrixEED2Ev.exit5:          ; preds = %_ZN5zxing3RefINS_9BitMatrixEEC2ERKS2_.exit.thread, %_ZN5zxing3RefINS_9BitMatrixEEC2ERKS2_.exit, %31, %36
  call void @llvm.lifetime.end.p0(i64 8, ptr nonnull %4) #9
  ret void
}